; Function Attrs: mustprogress uwtable
define noundef zeroext i1 @_ZN6google8protobuf8internal10WireFormat11SkipMessageEPNS0_2io16CodedInputStreamEPNS0_15UnknownFieldSetE(ptr noundef %input, ptr noundef %unknown_fields) local_unnamed_addr #3 align 2 {
entry:
  %buffer_end_.i = getelementptr inbounds nuw i8, ptr %input, i64 8
  %last_tag_.i = getelementptr inbounds nuw i8, ptr %input, i64 32
  br label %while.body

while.body:                                       ; preds = %if.end4, %entry
  %0 = load ptr, ptr %input, align 8
  %1 = load ptr, ptr %buffer_end_.i, align 8
  %cmp.i = icmp ult ptr %0, %1
  br i1 %cmp.i, label %if.then.i, label %if.end5.i

if.then.i:                                        ; preds = %while.body
  %2 = load i8, ptr %0, align 1
  %conv.i = zext i8 %2 to i32
  %cmp3.i = icmp sgt i8 %2, -1
  br i1 %cmp3.i, label %if.then4.i, label %if.end5.i

if.then4.i:                                       ; preds = %if.then.i
  %add.ptr.i = getelementptr inbounds nuw i8, ptr %0, i64 1
  store ptr %add.ptr.i, ptr %input, align 8
  br label %_ZN6google8protobuf2io16CodedInputStream16ReadTagNoLastTagEv.exit

if.end5.i:                                        ; preds = %if.then.i, %while.body
  %v.i.0 = phi i32 [ %conv.i, %if.then.i ], [ 0, %while.body ]
  %call.i10 = tail call noundef i32 @_ZN6google8protobuf2io16CodedInputStream15ReadTagFallbackEj(ptr noundef nonnull align 8 dereferenceable(80) %input, i32 noundef %v.i.0)
  br label %_ZN6google8protobuf2io16CodedInputStream16ReadTagNoLastTagEv.exit

_ZN6google8protobuf2io16CodedInputStream16ReadTagNoLastTagEv.exit: ; preds = %if.end5.i, %if.then4.i
  %retval.i.0 = phi i32 [ %conv.i, %if.then4.i ], [ %call.i10, %if.end5.i ]
  store i32 %retval.i.0, ptr %last_tag_.i, align 8
  %cmp = icmp eq i32 %retval.i.0, 0
  %and.i = and i32 %retval.i.0, 7
  %cmp2 = icmp eq i32 %and.i, 4
  %or.cond = or i1 %cmp, %cmp2
  br i1 %or.cond, label %return, label %if.end4

if.end4:                                          ; preds = %_ZN6google8protobuf2io16CodedInputStream16ReadTagNoLastTagEv.exit
  %call5 = tail call noundef zeroext i1 @_ZN6google8protobuf8internal10WireFormat9SkipFieldEPNS0_2io16CodedInputStreamEjPNS0_15UnknownFieldSetE(ptr noundef nonnull %input, i32 noundef %retval.i.0, ptr noundef %unknown_fields)
  br i1 %call5, label %while.body, label %return, !llvm.loop !4

return:                                           ; preds = %if.end4, %_ZN6google8protobuf2io16CodedInputStream16ReadTagNoLastTagEv.exit
  ret i1 %or.cond
}